; Function Attrs: nounwind uwtable
define internal noalias ptr @blake2b512_newctx(ptr readnone captures(none) %0) #1 {
  %2 = tail call i32 @ossl_prov_is_running() #6
  %.not = icmp eq i32 %2, 0
  br i1 %.not, label %5, label %3

3:                                                ; preds = %1
  %4 = tail call noalias ptr @CRYPTO_zalloc(i64 noundef 304, ptr noundef nonnull @.str.1, i32 noundef 198) #6
  br label %5

5:                                                ; preds = %1, %3
  %6 = phi ptr [ %4, %3 ], [ null, %1 ]
  ret ptr %6
}